(dp0
S'files'
p1
(dp2
S'video_file.mp4'
p3
(dp4
S'video_file.mp4.zip_17'
p5
(lp6
(dp7
S'name'
p8
S'video_file.mp4.zip_17.enc.zip'
p9
sS'cloud'
p10
S'dropbox'
p11
sS'size'
p12
I1048748
sa(dp13
g8
S'video_file.mp4.zip_18.enc.zip'
p14
sg10
S'box'
p15
sg12
I1048748
sa(dp16
g8
S'video_file.mp4.zip_17.xor.enc.zip'
p17
sg10
S'gdrive'
p18
sg12
I1048756
sasS'video_file.mp4.zip_29'
p19
(lp20
(dp21
g8
S'video_file.mp4.zip_29.enc.zip'
p22
sg10
g15
sg12
I1048748
sa(dp23
g8
S'video_file.mp4.zip_30.enc.zip'
p24
sg10
g18
sg12
I1048748
sa(dp25
g8
S'video_file.mp4.zip_29.xor.enc.zip'
p26
sg10
g11
sg12
I1048756
sasS'video_file.mp4.zip_11'
p27
(lp28
(dp29
g8
S'video_file.mp4.zip_11.enc.zip'
p30
sg10
g15
sg12
I1048748
sa(dp31
g8
S'video_file.mp4.zip_12.enc.zip'
p32
sg10
g18
sg12
I1048748
sa(dp33
g8
S'video_file.mp4.zip_11.xor.enc.zip'
p34
sg10
g11
sg12
I1048756
sasS'video_file.mp4.zip_31'
p35
(lp36
(dp37
g8
S'video_file.mp4.zip_31.enc.zip'
p38
sg10
g11
sg12
I34156
sa(dp39
g8
S'video_file.mp4.zip_31.dup.enc.zip'
p40
sg10
g15
sg12
I34164
sasS'video_file.mp4.zip_23'
p41
(lp42
(dp43
g8
S'video_file.mp4.zip_23.enc.zip'
p44
sg10
g15
sg12
I1048748
sa(dp45
g8
S'video_file.mp4.zip_24.enc.zip'
p46
sg10
g11
sg12
I1048748
sa(dp47
g8
S'video_file.mp4.zip_23.xor.enc.zip'
p48
sg10
g18
sg12
I1048756
sasS'video_file.mp4.zip_21'
p49
(lp50
(dp51
g8
S'video_file.mp4.zip_21.enc.zip'
p52
sg10
g18
sg12
I1048748
sa(dp53
g8
S'video_file.mp4.zip_22.enc.zip'
p54
sg10
g15
sg12
I1048748
sa(dp55
g8
S'video_file.mp4.zip_21.xor.enc.zip'
p56
sg10
g11
sg12
I1048756
sasS'video_file.mp4.zip_15'
p57
(lp58
(dp59
g8
S'video_file.mp4.zip_15.enc.zip'
p60
sg10
g15
sg12
I1048748
sa(dp61
g8
S'video_file.mp4.zip_16.enc.zip'
p62
sg10
g11
sg12
I1048748
sa(dp63
g8
S'video_file.mp4.zip_15.xor.enc.zip'
p64
sg10
g18
sg12
I1048756
sasS'video_file.mp4.zip_25'
p65
(lp66
(dp67
g8
S'video_file.mp4.zip_25.enc.zip'
p68
sg10
g11
sg12
I1048748
sa(dp69
g8
S'video_file.mp4.zip_26.enc.zip'
p70
sg10
g18
sg12
I1048748
sa(dp71
g8
S'video_file.mp4.zip_25.xor.enc.zip'
p72
sg10
g15
sg12
I1048756
sasS'video_file.mp4.zip_3'
p73
(lp74
(dp75
g8
S'video_file.mp4.zip_3.enc.zip'
p76
sg10
g15
sg12
I1048746
sa(dp77
g8
S'video_file.mp4.zip_4.enc.zip'
p78
sg10
g18
sg12
I1048746
sa(dp79
g8
S'video_file.mp4.zip_3.xor.enc.zip'
p80
sg10
g11
sg12
I1048754
sasS'video_file.mp4.zip_1'
p81
(lp82
(dp83
g8
S'video_file.mp4.zip_1.enc.zip'
p84
sg10
g18
sg12
I1048746
sa(dp85
g8
S'video_file.mp4.zip_2.enc.zip'
p86
sg10
g11
sg12
I1048746
sa(dp87
g8
S'video_file.mp4.zip_1.xor.enc.zip'
p88
sg10
g15
sg12
I1048754
sasS'video_file.mp4.zip_7'
p89
(lp90
(dp91
g8
S'video_file.mp4.zip_7.enc.zip'
p92
sg10
g11
sg12
I1048746
sa(dp93
g8
S'video_file.mp4.zip_8.enc.zip'
p94
sg10
g18
sg12
I1048746
sa(dp95
g8
S'video_file.mp4.zip_7.xor.enc.zip'
p96
sg10
g15
sg12
I1048754
sasS'video_file.mp4.zip_5'
p97
(lp98
(dp99
g8
S'video_file.mp4.zip_5.enc.zip'
p100
sg10
g18
sg12
I1048746
sa(dp101
g8
S'video_file.mp4.zip_6.enc.zip'
p102
sg10
g11
sg12
I1048746
sa(dp103
g8
S'video_file.mp4.zip_5.xor.enc.zip'
p104
sg10
g15
sg12
I1048754
sasS'video_file.mp4.zip_13'
p105
(lp106
(dp107
g8
S'video_file.mp4.zip_13.enc.zip'
p108
sg10
g11
sg12
I1048748
sa(dp109
g8
S'video_file.mp4.zip_14.enc.zip'
p110
sg10
g15
sg12
I1048748
sa(dp111
g8
S'video_file.mp4.zip_13.xor.enc.zip'
p112
sg10
g18
sg12
I1048756
sasS'video_file.mp4.zip_9'
p113
(lp114
(dp115
g8
S'video_file.mp4.zip_9.enc.zip'
p116
sg10
g15
sg12
I1048746
sa(dp117
g8
S'video_file.mp4.zip_10.enc.zip'
p118
sg10
g11
sg12
I1048748
sa(dp119
g8
S'video_file.mp4.zip_9.xor.enc.zip'
p120
sg10
g18
sg12
I1048754
sasS'video_file.mp4.zip_27'
p121
(lp122
(dp123
g8
S'video_file.mp4.zip_27.enc.zip'
p124
sg10
g18
sg12
I1048748
sa(dp125
g8
S'video_file.mp4.zip_28.enc.zip'
p126
sg10
g15
sg12
I1048748
sa(dp127
g8
S'video_file.mp4.zip_27.xor.enc.zip'
p128
sg10
g11
sg12
I1048756
sasS'video_file.mp4.zip_19'
p129
(lp130
(dp131
g8
S'video_file.mp4.zip_19.enc.zip'
p132
sg10
g15
sg12
I1048748
sa(dp133
g8
S'video_file.mp4.zip_20.enc.zip'
p134
sg10
g11
sg12
I1048748
sa(dp135
g8
S'video_file.mp4.zip_19.xor.enc.zip'
p136
sg10
g18
sg12
I1048756
sassS'expert_angular.pdf'
p137
(dp138
S'expert_angular.pdf.zip_5'
p139
(lp140
(dp141
S'name'
p142
S'expert_angular.pdf.zip_5.enc.zip'
p143
sS'cloud'
p144
S'dropbox'
p145
sS'size'
p146
I1048754
sa(dp147
g142
S'expert_angular.pdf.zip_6.enc.zip'
p148
sg144
S'gdrive'
p149
sg146
I1048754
sa(dp150
g142
S'expert_angular.pdf.zip_5.xor.enc.zip'
p151
sg144
S'box'
p152
sg146
I1048762
sasS'expert_angular.pdf.zip_7'
p153
(lp154
(dp155
g142
S'expert_angular.pdf.zip_7.enc.zip'
p156
sg144
g149
sg146
I1048754
sa(dp157
g142
S'expert_angular.pdf.zip_8.enc.zip'
p158
sg144
g145
sg146
I1048754
sa(dp159
g142
S'expert_angular.pdf.zip_7.xor.enc.zip'
p160
sg144
g152
sg146
I1048762
sasS'expert_angular.pdf.zip_1'
p161
(lp162
(dp163
g142
S'expert_angular.pdf.zip_1.enc.zip'
p164
sg144
g149
sg146
I1048754
sa(dp165
g142
S'expert_angular.pdf.zip_2.enc.zip'
p166
sg144
g145
sg146
I1048754
sa(dp167
g142
S'expert_angular.pdf.zip_1.xor.enc.zip'
p168
sg144
g152
sg146
I1048762
sasS'expert_angular.pdf.zip_3'
p169
(lp170
(dp171
g142
S'expert_angular.pdf.zip_3.enc.zip'
p172
sg144
g152
sg146
I1048754
sa(dp173
g142
S'expert_angular.pdf.zip_4.enc.zip'
p174
sg144
g149
sg146
I1048754
sa(dp175
g142
S'expert_angular.pdf.zip_3.xor.enc.zip'
p176
sg144
g145
sg146
I1048762
sasS'expert_angular.pdf.zip_9'
p177
(lp178
(dp179
g142
S'expert_angular.pdf.zip_9.enc.zip'
p180
sg144
g145
sg146
I1048754
sa(dp181
g142
S'expert_angular.pdf.zip_10.enc.zip'
p182
sg144
g152
sg146
I1048756
sa(dp183
g142
S'expert_angular.pdf.zip_9.xor.enc.zip'
p184
sg144
g149
sg146
I1048762
sasS'expert_angular.pdf.zip_11'
p185
(lp186
(dp187
g142
S'expert_angular.pdf.zip_11.enc.zip'
p188
sg144
g149
sg146
I9028
sa(dp189
g142
S'expert_angular.pdf.zip_11.dup.enc.zip'
p190
sg144
g145
sg146
I9036
sasss.